; Function Attrs: nounwind uwtable
define range(i32 -1, 2) i32 @pqWaitTimed(i32 noundef %0, i32 noundef %1, ptr noundef %2, i64 noundef %3) local_unnamed_addr #2 {
  %5 = tail call fastcc i32 @pqSocketCheck(ptr noundef %2, i32 noundef %0, i32 noundef %1, i64 noundef %3)
  %6 = icmp slt i32 %5, 0
  br i1 %6, label %10, label %7

7:                                                ; preds = %4
  %8 = icmp eq i32 %5, 0
  br i1 %8, label %9, label %10

9:                                                ; preds = %7
  tail call void (ptr, ptr, ...) @libpq_append_conn_error(ptr noundef %2, ptr noundef nonnull @.str.6)
  br label %10

10:                                               ; preds = %7, %4, %9
  %.0 = phi i32 [ 1, %9 ], [ -1, %4 ], [ 0, %7 ]
  ret i32 %.0
}